(dp1
S'output'
p2
S"<type 'exceptions.IndexError'> list index out of range"
p3
sS'layer'
p4
S'C:\\Users\\Joey\\PycharmProjects\\cmps183\\web2py\\applications\\Visualizr\\controllers/default.py'
p5
sS'code'
p6
S'# -*- coding: utf-8 -*-\n# this file is released under public domain and you can use without limitations\n\n# -------------------------------------------------------------------------\n# This is a sample controller\n# - index is the default action of any application\n# - user is required for authentication and authorization\n# - download is for downloading files uploaded in the db (does streaming)\n# -------------------------------------------------------------------------\n\nimport os\nimport uuid\n\ndef index():\n    """\n    example action using the internationalization operator T and flash\n    rendered by views/default/index.html or views/generic.html\n\n    if you need a simple wiki simply replace the two lines below with:\n    return auth.wiki()\n    """\n    maintable = db(db.master_table).select()\n    return dict( maintable = maintable)\n\ndef visView():\n    record = db.master_table(request.args[0])\n    check = 0\n    if request.args[1] == "True":\n        check = 1\n    return dict(record=record, check=check)\n\n\ndef user():\n    """\n    exposes:\n    http://..../[app]/default/user/login\n    http://..../[app]/default/user/logout\n    http://..../[app]/default/user/register\n    http://..../[app]/default/user/profile\n    http://..../[app]/default/user/retrieve_password\n    http://..../[app]/default/user/change_password\n    http://..../[app]/default/user/bulk_register\n    use @auth.requires_login()\n        @auth.requires_membership(\'group name\')\n        @auth.requires_permission(\'read\',\'table name\',record_id)\n    to decorate functions that need access control\n    also notice there is http://..../[app]/appadmin/manage/auth to allow administrator to manage users\n    """\n    return dict(form=auth())\n\n\n@cache.action()\ndef download():\n    """\n    allows downloading of uploaded files\n    http://..../[app]/default/download/[filename]\n    """\n    return response.download(request, db)\n\n\ndef call():\n    """\n    exposes services. for example:\n    http://..../[app]/default/call/jsonrpc\n    decorate with @services.jsonrpc the functions to expose\n    supports xml, json, xmlrpc, jsonrpc, amfrpc, rss, csv\n    """\n    return service()\n\ndef upload_data():\n    form = SQLFORM(db.master_table, fields=[\'table_name\', \'single_company\',\'upload_data\'])\n    form.add_button(\'Cancel\', URL(\'index\'))\n    if form.process().accepted:\n        response.flash = \'Form Accepted\'\n        redirect(URL(\'index\'))\n        """session.upload_data = form.vars.upload_data"""\n    elif form.errors:\n        response.flash = \'Upload Form Error\'\n    return dict(form = form)\n\ndef filter_table(form):\n    if form.vars.upload_data is not None:\n        f = open("applications/Visualizr/static/" + form.vars.upload_data)\n    rows = f.readlines()\n    line = rows[0].strip()\n    columns = line.split(\',\')\n    tablename = form.vars.table_name\n    #tablename = \'standss\'\n    db.define_table(tablename, *[Field(c) for c in columns])\n    for r in range(1,len(rows)):\n        row = rows[r].strip()\n        entries = row.split(\',\')\n        for index in range(0,len(entries)):\n            db[tablename][columns[index]] = entries[index]\n    #master_entry = db(db.master_table.upload_data == form.vars.upload_data).update(table_id = tablename)\n\ndef display_table():\n    print db.tables\n    print db[\'standss\'][\'stand\']\n\n@auth.requires_signature()\ndef delete():\n    db(db.master_table.id == request.args(0)).delete()\n    session.flash = T(\'Post deleted successfully\')\n    redirect(URL(\'default\', \'index\'))\nresponse._vars=response._caller(visView)\n'
p7
sS'snapshot'
p8
(dp9
sS'traceback'
p10
S'Traceback (most recent call last):\n  File "C:\\Users\\Joey\\PycharmProjects\\cmps183\\web2py\\gluon\\restricted.py", line 227, in restricted\n    exec ccode in environment\n  File "C:\\Users\\Joey\\PycharmProjects\\cmps183\\web2py\\applications\\Visualizr\\controllers/default.py", line 106, in <module>\n  File "C:\\Users\\Joey\\PycharmProjects\\cmps183\\web2py\\gluon\\globals.py", line 417, in <lambda>\n    self._caller = lambda f: f()\n  File "C:\\Users\\Joey\\PycharmProjects\\cmps183\\web2py\\applications\\Visualizr\\controllers/default.py", line 28, in visView\n    if request.args[1] == "True":\nIndexError: list index out of range\n'
p11
s.